target datalayout = "e-m:e-p270:32:32-p271:32:32-p272:64:64-i64:64-i128:128-f80:128-n8:16:32:64-S128"
target triple = "x86_64-pc-linux-gnu"

%union.PJ_COORD = type { [4 x double] }

@.str.10 = private unnamed_addr constant [17 x i8] c"n should be >= 1\00", align 1

; Function Attrs: mustprogress nounwind uwtable
define linkonce_odr noundef zeroext i1 @_ZSt5isnand(double noundef %0) #2 comdat {
  %2 = alloca double, align 8
  store double %0, ptr %2, align 8, !tbaa !18
  %3 = load double, ptr %2, align 8, !tbaa !18
  %4 = call i1 @llvm.is.fpclass.f64(double %3, i32 3)
  ret i1 %4
}

; Function Attrs: inlinehint mustprogress nounwind uwtable
define internal noundef zeroext i1 @_ZL17coord_is_all_nans8PJ_COORD(ptr noundef byval(%union.PJ_COORD) align 8 %0) #5 {
  %2 = getelementptr inbounds [4 x double], ptr %0, i64 0, i64 0
  %3 = load double, ptr %2, align 8, !tbaa !34
  %4 = call noundef zeroext i1 @_ZSt5isnand(double noundef %3)
  br i1 %4, label %5, label %17

5:                                                ; preds = %1
  %6 = getelementptr inbounds [4 x double], ptr %0, i64 0, i64 1
  %7 = load double, ptr %6, align 8, !tbaa !34
  %8 = call noundef zeroext i1 @_ZSt5isnand(double noundef %7)
  br i1 %8, label %9, label %17

9:                                                ; preds = %5
  %10 = getelementptr inbounds [4 x double], ptr %0, i64 0, i64 2
  %11 = load double, ptr %10, align 8, !tbaa !34
  %12 = call noundef zeroext i1 @_ZSt5isnand(double noundef %11)
  br i1 %12, label %13, label %17

13:                                               ; preds = %9
  %14 = getelementptr inbounds [4 x double], ptr %0, i64 0, i64 3
  %15 = load double, ptr %14, align 8, !tbaa !34
  %16 = call noundef zeroext i1 @_ZSt5isnand(double noundef %15)
  br label %17

17:                                               ; preds = %13, %9, %5, %1
  %18 = phi i1 [ false, %9 ], [ false, %5 ], [ false, %1 ], [ %16, %13 ]
  ret i1 %18
}

; Function Attrs: inlinehint mustprogress uwtable
define linkonce_odr hidden noundef zeroext i1 @_Z17pj_coord_has_nans8PJ_COORD(ptr noundef byval(%union.PJ_COORD) align 8 %0) #8 comdat {
  %2 = getelementptr inbounds [4 x double], ptr %0, i64 0, i64 0
  %3 = load double, ptr %2, align 8, !tbaa !34
  %4 = call noundef zeroext i1 @_ZSt5isnand(double noundef %3)
  br i1 %4, label %17, label %5

5:                                                ; preds = %1
  %6 = getelementptr inbounds [4 x double], ptr %0, i64 0, i64 1
  %7 = load double, ptr %6, align 8, !tbaa !34
  %8 = call noundef zeroext i1 @_ZSt5isnand(double noundef %7)
  br i1 %8, label %17, label %9

9:                                                ; preds = %5
  %10 = getelementptr inbounds [4 x double], ptr %0, i64 0, i64 2
  %11 = load double, ptr %10, align 8, !tbaa !34
  %12 = call noundef zeroext i1 @_ZSt5isnand(double noundef %11)
  br i1 %12, label %17, label %13

13:                                               ; preds = %9
  %14 = getelementptr inbounds [4 x double], ptr %0, i64 0, i64 3
  %15 = load double, ptr %14, align 8, !tbaa !34
  %16 = call noundef zeroext i1 @_ZSt5isnand(double noundef %15)
  br label %17

17:                                               ; preds = %13, %9, %5, %1
  %18 = phi i1 [ true, %9 ], [ true, %5 ], [ true, %1 ], [ %16, %13 ]
  ret i1 %18
}

; Function Attrs: mustprogress uwtable
define double @proj_roundtrip(ptr noundef %0, i32 noundef %1, i32 noundef %2, ptr noundef %3) #0 {
  %5 = alloca double, align 8
  %6 = alloca ptr, align 8
  %7 = alloca i32, align 4
  %8 = alloca i32, align 4
  %9 = alloca ptr, align 8
  %10 = alloca i32, align 4
  %11 = alloca %union.PJ_COORD, align 8
  %12 = alloca %union.PJ_COORD, align 8
  %13 = alloca i32, align 4
  %14 = alloca %union.PJ_COORD, align 8
  %15 = alloca %union.PJ_COORD, align 8
  %16 = alloca %union.PJ_COORD, align 8
  %17 = alloca %union.PJ_COORD, align 8
  %18 = alloca %union.PJ_COORD, align 8
  %19 = alloca %union.PJ_COORD, align 8
  %20 = alloca %union.PJ_COORD, align 8
  %21 = alloca %union.PJ_COORD, align 8
  %22 = alloca %union.PJ_COORD, align 8
  %23 = alloca %union.PJ_COORD, align 8
  %24 = alloca %union.PJ_COORD, align 8
  %25 = alloca %union.PJ_COORD, align 8
  %26 = alloca %union.PJ_COORD, align 8
  store ptr %0, ptr %6, align 8, !tbaa !58
  store i32 %1, ptr %7, align 4, !tbaa !14
  store i32 %2, ptr %8, align 4, !tbaa !16
  store ptr %3, ptr %9, align 8, !tbaa !135
  call void @llvm.lifetime.start.p0(i64 4, ptr %10) #19
  call void @llvm.lifetime.start.p0(i64 32, ptr %11) #19
  call void @llvm.lifetime.start.p0(i64 32, ptr %12) #19
  %27 = load ptr, ptr %6, align 8, !tbaa !58
  %28 = icmp eq ptr null, %27
  br i1 %28, label %29, label %30

29:                                               ; preds = %4
  store double 0x7FF0000000000000, ptr %5, align 8
  store i32 1, ptr %13, align 4
  br label %75

30:                                               ; preds = %4
  %31 = load i32, ptr %8, align 4, !tbaa !16
  %32 = icmp slt i32 %31, 1
  br i1 %32, label %33, label %37

33:                                               ; preds = %30
  %34 = load ptr, ptr %6, align 8, !tbaa !58
  call void (ptr, ptr, ...) @_Z14proj_log_errorPK8PJconstsPKcz(ptr noundef %34, ptr noundef @.str.10)
  %35 = load ptr, ptr %6, align 8, !tbaa !58
  %36 = call i32 @proj_errno_set(ptr noundef %35, i32 noundef 4097)
  store double 0x7FF0000000000000, ptr %5, align 8
  store i32 1, ptr %13, align 4
  br label %75

37:                                               ; preds = %30
  %38 = load ptr, ptr %9, align 8, !tbaa !135
  call void @llvm.memcpy.p0.p0.i64(ptr align 8 %12, ptr align 8 %38, i64 32, i1 false), !tbaa.struct !33
  call void @llvm.lifetime.start.p0(i64 32, ptr %14) #19
  %39 = load ptr, ptr %6, align 8, !tbaa !58
  %40 = load i32, ptr %7, align 4, !tbaa !14
  call void @llvm.memcpy.p0.p0.i64(ptr align 8 %15, ptr align 8 %12, i64 32, i1 false), !tbaa.struct !33
  call void @proj_trans(ptr dead_on_unwind writable sret(%union.PJ_COORD) align 8 %14, ptr noundef %39, i32 noundef %40, ptr noundef byval(%union.PJ_COORD) align 8 %15)
  %41 = load ptr, ptr %9, align 8, !tbaa !135
  call void @llvm.memcpy.p0.p0.i64(ptr align 8 %41, ptr align 8 %14, i64 32, i1 false), !tbaa.struct !33
  call void @llvm.lifetime.end.p0(i64 32, ptr %14) #19
  %42 = load ptr, ptr %9, align 8, !tbaa !135
  call void @llvm.memcpy.p0.p0.i64(ptr align 8 %11, ptr align 8 %42, i64 32, i1 false), !tbaa.struct !33
  store i32 0, ptr %10, align 4, !tbaa !16
  br label %43

43:                                               ; preds = %54, %37
  %44 = load i32, ptr %10, align 4, !tbaa !16
  %45 = load i32, ptr %8, align 4, !tbaa !16
  %46 = sub nsw i32 %45, 1
  %47 = icmp slt i32 %44, %46
  br i1 %47, label %48, label %57

48:                                               ; preds = %43
  call void @llvm.lifetime.start.p0(i64 32, ptr %16) #19
  %49 = load ptr, ptr %6, align 8, !tbaa !58
  %50 = load i32, ptr %7, align 4, !tbaa !14
  %51 = load ptr, ptr %6, align 8, !tbaa !58
  %52 = load i32, ptr %7, align 4, !tbaa !14
  %53 = call noundef i32 @_Z21pj_opposite_direction12PJ_DIRECTION(i32 noundef %52)
  call void @llvm.memcpy.p0.p0.i64(ptr align 8 %18, ptr align 8 %11, i64 32, i1 false), !tbaa.struct !33
  call void @proj_trans(ptr dead_on_unwind writable sret(%union.PJ_COORD) align 8 %17, ptr noundef %51, i32 noundef %53, ptr noundef byval(%union.PJ_COORD) align 8 %18)
  call void @proj_trans(ptr dead_on_unwind writable sret(%union.PJ_COORD) align 8 %16, ptr noundef %49, i32 noundef %50, ptr noundef byval(%union.PJ_COORD) align 8 %17)
  call void @llvm.memcpy.p0.p0.i64(ptr align 8 %11, ptr align 8 %16, i64 32, i1 false), !tbaa.struct !33
  call void @llvm.lifetime.end.p0(i64 32, ptr %16) #19
  br label %54

54:                                               ; preds = %48
  %55 = load i32, ptr %10, align 4, !tbaa !16
  %56 = add nsw i32 %55, 1
  store i32 %56, ptr %10, align 4, !tbaa !16
  br label %43, !llvm.loop !141

57:                                               ; preds = %43
  call void @llvm.lifetime.start.p0(i64 32, ptr %19) #19
  %58 = load ptr, ptr %6, align 8, !tbaa !58
  %59 = load i32, ptr %7, align 4, !tbaa !14
  %60 = call noundef i32 @_Z21pj_opposite_direction12PJ_DIRECTION(i32 noundef %59)
  call void @llvm.memcpy.p0.p0.i64(ptr align 8 %20, ptr align 8 %11, i64 32, i1 false), !tbaa.struct !33
  call void @proj_trans(ptr dead_on_unwind writable sret(%union.PJ_COORD) align 8 %19, ptr noundef %58, i32 noundef %60, ptr noundef byval(%union.PJ_COORD) align 8 %20)
  call void @llvm.memcpy.p0.p0.i64(ptr align 8 %11, ptr align 8 %19, i64 32, i1 false), !tbaa.struct !33
  call void @llvm.lifetime.end.p0(i64 32, ptr %19) #19
  call void @llvm.memcpy.p0.p0.i64(ptr align 8 %21, ptr align 8 %12, i64 32, i1 false), !tbaa.struct !33
  %61 = call noundef zeroext i1 @_Z17pj_coord_has_nans8PJ_COORD(ptr noundef byval(%union.PJ_COORD) align 8 %21)
  br i1 %61, label %62, label %65

62:                                               ; preds = %57
  call void @llvm.memcpy.p0.p0.i64(ptr align 8 %22, ptr align 8 %11, i64 32, i1 false), !tbaa.struct !33
  %63 = call noundef zeroext i1 @_ZL17coord_is_all_nans8PJ_COORD(ptr noundef byval(%union.PJ_COORD) align 8 %22)
  br i1 %63, label %64, label %65

64:                                               ; preds = %62
  store double 0.000000e+00, ptr %5, align 8
  store i32 1, ptr %13, align 4
  br label %75

65:                                               ; preds = %62, %57
  %66 = load ptr, ptr %6, align 8, !tbaa !58
  %67 = load i32, ptr %7, align 4, !tbaa !14
  %68 = call i32 @proj_angular_input(ptr noundef %66, i32 noundef %67)
  %69 = icmp ne i32 %68, 0
  br i1 %69, label %70, label %73

70:                                               ; preds = %65
  %71 = load ptr, ptr %6, align 8, !tbaa !58
  call void @llvm.memcpy.p0.p0.i64(ptr align 8 %23, ptr align 8 %12, i64 32, i1 false), !tbaa.struct !33
  call void @llvm.memcpy.p0.p0.i64(ptr align 8 %24, ptr align 8 %11, i64 32, i1 false), !tbaa.struct !33
  %72 = call double @proj_lpz_dist(ptr noundef %71, ptr noundef byval(%union.PJ_COORD) align 8 %23, ptr noundef byval(%union.PJ_COORD) align 8 %24)
  store double %72, ptr %5, align 8
  store i32 1, ptr %13, align 4
  br label %75

73:                                               ; preds = %65
  call void @llvm.memcpy.p0.p0.i64(ptr align 8 %25, ptr align 8 %12, i64 32, i1 false), !tbaa.struct !33
  call void @llvm.memcpy.p0.p0.i64(ptr align 8 %26, ptr align 8 %11, i64 32, i1 false), !tbaa.struct !33
  %74 = call double @proj_xyz_dist(ptr noundef byval(%union.PJ_COORD) align 8 %25, ptr noundef byval(%union.PJ_COORD) align 8 %26)
  store double %74, ptr %5, align 8
  store i32 1, ptr %13, align 4
  br label %75

75:                                               ; preds = %73, %70, %64, %33, %29
  call void @llvm.lifetime.end.p0(i64 32, ptr %12) #19
  call void @llvm.lifetime.end.p0(i64 32, ptr %11) #19
  call void @llvm.lifetime.end.p0(i64 4, ptr %10) #19
  %76 = load double, ptr %5, align 8
  ret double %76
}