; Function Attrs: mustprogress uwtable
define double @proj_roundtrip(ptr noundef %0, i32 noundef %1, i32 noundef %2, ptr noundef captures(none) %3) local_unnamed_addr #0 {
  %5 = alloca %union.PJ_COORD, align 8
  %6 = alloca %union.PJ_COORD, align 8
  %7 = alloca %union.PJ_COORD, align 8
  %8 = alloca %union.PJ_COORD, align 8
  %9 = alloca %union.PJ_COORD, align 8
  %10 = alloca %union.PJ_COORD, align 8
  %11 = alloca %union.PJ_COORD, align 8
  %12 = alloca %union.PJ_COORD, align 8
  %13 = alloca %union.PJ_COORD, align 8
  %14 = alloca %union.PJ_COORD, align 8
  %15 = alloca %union.PJ_COORD, align 8
  %16 = icmp eq ptr %0, null
  br i1 %16, label %40, label %17

17:                                               ; preds = %4
  %18 = icmp slt i32 %2, 1
  br i1 %18, label %19, label %21

19:                                               ; preds = %17
  tail call void (ptr, ptr, ...) @_Z14proj_log_errorPK8PJconstsPKcz(ptr noundef nonnull %0, ptr noundef nonnull @.str.10)
  %20 = tail call i32 @proj_errno_set(ptr noundef nonnull %0, i32 noundef 4097)
  br label %40

21:                                               ; preds = %17
  %.sroa.0.sroa.0.0.copyload = load double, ptr %3, align 8
  %.sroa.0.sroa.7.0..sroa_idx = getelementptr inbounds nuw i8, ptr %3, i64 8
  %.sroa.0.sroa.7.0.copyload = load double, ptr %.sroa.0.sroa.7.0..sroa_idx, align 8
  %.sroa.0.sroa.8.0..sroa_idx = getelementptr inbounds nuw i8, ptr %3, i64 16
  %.sroa.0.sroa.8.0.copyload = load double, ptr %.sroa.0.sroa.8.0..sroa_idx, align 8
  %.sroa.0.sroa.9.0..sroa_idx = getelementptr inbounds nuw i8, ptr %3, i64 24
  %.sroa.0.sroa.9.0.copyload = load double, ptr %.sroa.0.sroa.9.0..sroa_idx, align 8, !tbaa !26
  call void @llvm.lifetime.start.p0(i64 32, ptr nonnull %5) #18
  store double %.sroa.0.sroa.0.0.copyload, ptr %6, align 8
  %.sroa.0.sroa.7.0..sroa_idx76 = getelementptr inbounds nuw i8, ptr %6, i64 8
  store double %.sroa.0.sroa.7.0.copyload, ptr %.sroa.0.sroa.7.0..sroa_idx76, align 8
  %.sroa.0.sroa.8.0..sroa_idx82 = getelementptr inbounds nuw i8, ptr %6, i64 16
  store double %.sroa.0.sroa.8.0.copyload, ptr %.sroa.0.sroa.8.0..sroa_idx82, align 8
  %.sroa.0.sroa.9.0..sroa_idx88 = getelementptr inbounds nuw i8, ptr %6, i64 24
  store double %.sroa.0.sroa.9.0.copyload, ptr %.sroa.0.sroa.9.0..sroa_idx88, align 8, !tbaa !26
  call void @proj_trans(ptr dead_on_unwind nonnull writable sret(%union.PJ_COORD) align 8 %5, ptr noundef nonnull %0, i32 noundef %1, ptr noundef nonnull byval(%union.PJ_COORD) align 8 %6)
  call void @llvm.memcpy.p0.p0.i64(ptr noundef nonnull align 8 dereferenceable(32) %3, ptr noundef nonnull align 8 dereferenceable(32) %5, i64 32, i1 false), !tbaa.struct !25
  call void @llvm.lifetime.end.p0(i64 32, ptr nonnull %5) #18
  %.sroa.01.sroa.0.0.copyload = load double, ptr %3, align 8
  %.sroa.01.sroa.10.0.copyload = load double, ptr %.sroa.0.sroa.7.0..sroa_idx, align 8
  %.sroa.01.sroa.11.0.copyload = load double, ptr %.sroa.0.sroa.8.0..sroa_idx, align 8
  %.sroa.01.sroa.12.0.copyload = load double, ptr %.sroa.0.sroa.9.0..sroa_idx, align 8, !tbaa !26
  %.not103 = icmp eq i32 %2, 1
  br i1 %.not103, label %._crit_edge, label %.lr.ph

.lr.ph:                                           ; preds = %21
  %.sroa.01.sroa.10.0..sroa_idx35 = getelementptr inbounds nuw i8, ptr %9, i64 8
  %.sroa.01.sroa.11.0..sroa_idx47 = getelementptr inbounds nuw i8, ptr %9, i64 16
  %.sroa.01.sroa.12.0..sroa_idx59 = getelementptr inbounds nuw i8, ptr %9, i64 24
  %.sroa.01.sroa.10.0..sroa_idx37 = getelementptr inbounds nuw i8, ptr %7, i64 8
  %.sroa.01.sroa.11.0..sroa_idx49 = getelementptr inbounds nuw i8, ptr %7, i64 16
  %.sroa.01.sroa.12.0..sroa_idx61 = getelementptr inbounds nuw i8, ptr %7, i64 24
  %22 = add nsw i32 %2, -2
  br label %23

23:                                               ; preds = %.lr.ph, %23
  %.099 = phi i32 [ 0, %.lr.ph ], [ %25, %23 ]
  %.sroa.01.sroa.12.098 = phi double [ %.sroa.01.sroa.12.0.copyload, %.lr.ph ], [ %.sroa.01.sroa.12.0.copyload62, %23 ]
  %.sroa.01.sroa.11.097 = phi double [ %.sroa.01.sroa.11.0.copyload, %.lr.ph ], [ %.sroa.01.sroa.11.0.copyload50, %23 ]
  %.sroa.01.sroa.10.096 = phi double [ %.sroa.01.sroa.10.0.copyload, %.lr.ph ], [ %.sroa.01.sroa.10.0.copyload38, %23 ]
  %.sroa.01.sroa.0.095 = phi double [ %.sroa.01.sroa.0.0.copyload, %.lr.ph ], [ %.sroa.01.sroa.0.0.copyload30, %23 ]
  call void @llvm.lifetime.start.p0(i64 32, ptr nonnull %7) #18
  %24 = call noundef i32 @_Z21pj_opposite_direction12PJ_DIRECTION(i32 noundef %1)
  store double %.sroa.01.sroa.0.095, ptr %9, align 8
  store double %.sroa.01.sroa.10.096, ptr %.sroa.01.sroa.10.0..sroa_idx35, align 8
  store double %.sroa.01.sroa.11.097, ptr %.sroa.01.sroa.11.0..sroa_idx47, align 8
  store double %.sroa.01.sroa.12.098, ptr %.sroa.01.sroa.12.0..sroa_idx59, align 8, !tbaa !26
  call void @proj_trans(ptr dead_on_unwind nonnull writable sret(%union.PJ_COORD) align 8 %8, ptr noundef nonnull %0, i32 noundef %24, ptr noundef nonnull byval(%union.PJ_COORD) align 8 %9)
  call void @proj_trans(ptr dead_on_unwind nonnull writable sret(%union.PJ_COORD) align 8 %7, ptr noundef nonnull %0, i32 noundef %1, ptr noundef nonnull byval(%union.PJ_COORD) align 8 %8)
  %.sroa.01.sroa.0.0.copyload30 = load double, ptr %7, align 8
  %.sroa.01.sroa.10.0.copyload38 = load double, ptr %.sroa.01.sroa.10.0..sroa_idx37, align 8
  %.sroa.01.sroa.11.0.copyload50 = load double, ptr %.sroa.01.sroa.11.0..sroa_idx49, align 8
  %.sroa.01.sroa.12.0.copyload62 = load double, ptr %.sroa.01.sroa.12.0..sroa_idx61, align 8, !tbaa !26
  call void @llvm.lifetime.end.p0(i64 32, ptr nonnull %7) #18
  %25 = add nuw nsw i32 %.099, 1
  %exitcond.not = icmp eq i32 %.099, %22
  br i1 %exitcond.not, label %._crit_edge, label %23, !llvm.loop !123

._crit_edge:                                      ; preds = %23, %21
  %.sroa.01.sroa.0.0.lcssa = phi double [ %.sroa.01.sroa.0.0.copyload, %21 ], [ %.sroa.01.sroa.0.0.copyload30, %23 ]
  %.sroa.01.sroa.10.0.lcssa = phi double [ %.sroa.01.sroa.10.0.copyload, %21 ], [ %.sroa.01.sroa.10.0.copyload38, %23 ]
  %.sroa.01.sroa.11.0.lcssa = phi double [ %.sroa.01.sroa.11.0.copyload, %21 ], [ %.sroa.01.sroa.11.0.copyload50, %23 ]
  %.sroa.01.sroa.12.0.lcssa = phi double [ %.sroa.01.sroa.12.0.copyload, %21 ], [ %.sroa.01.sroa.12.0.copyload62, %23 ]
  call void @llvm.lifetime.start.p0(i64 32, ptr nonnull %10) #18
  %26 = call noundef i32 @_Z21pj_opposite_direction12PJ_DIRECTION(i32 noundef %1)
  store double %.sroa.01.sroa.0.0.lcssa, ptr %11, align 8
  %.sroa.01.sroa.10.0..sroa_idx39 = getelementptr inbounds nuw i8, ptr %11, i64 8
  store double %.sroa.01.sroa.10.0.lcssa, ptr %.sroa.01.sroa.10.0..sroa_idx39, align 8
  %.sroa.01.sroa.11.0..sroa_idx51 = getelementptr inbounds nuw i8, ptr %11, i64 16
  store double %.sroa.01.sroa.11.0.lcssa, ptr %.sroa.01.sroa.11.0..sroa_idx51, align 8
  %.sroa.01.sroa.12.0..sroa_idx63 = getelementptr inbounds nuw i8, ptr %11, i64 24
  store double %.sroa.01.sroa.12.0.lcssa, ptr %.sroa.01.sroa.12.0..sroa_idx63, align 8, !tbaa !26
  call void @proj_trans(ptr dead_on_unwind nonnull writable sret(%union.PJ_COORD) align 8 %10, ptr noundef nonnull %0, i32 noundef %26, ptr noundef nonnull byval(%union.PJ_COORD) align 8 %11)
  %.sroa.01.sroa.0.0.copyload32 = load double, ptr %10, align 8
  %.sroa.01.sroa.10.0..sroa_idx41 = getelementptr inbounds nuw i8, ptr %10, i64 8
  %.sroa.01.sroa.10.0.copyload42 = load double, ptr %.sroa.01.sroa.10.0..sroa_idx41, align 8
  %.sroa.01.sroa.11.0..sroa_idx53 = getelementptr inbounds nuw i8, ptr %10, i64 16
  %.sroa.01.sroa.11.0.copyload54 = load double, ptr %.sroa.01.sroa.11.0..sroa_idx53, align 8
  %.sroa.01.sroa.12.0..sroa_idx65 = getelementptr inbounds nuw i8, ptr %10, i64 24
  %.sroa.01.sroa.12.0.copyload66 = load double, ptr %.sroa.01.sroa.12.0..sroa_idx65, align 8, !tbaa !26
  call void @llvm.lifetime.end.p0(i64 32, ptr nonnull %10) #18
  %27 = fcmp uno double %.sroa.0.sroa.0.0.copyload, 0.000000e+00
  %28 = fcmp uno double %.sroa.0.sroa.7.0.copyload, 0.000000e+00
  %or.cond.i = select i1 %27, i1 true, i1 %28
  %29 = fcmp uno double %.sroa.0.sroa.8.0.copyload, 0.000000e+00
  %or.cond5.i = select i1 %or.cond.i, i1 true, i1 %29
  %30 = fcmp uno double %.sroa.0.sroa.9.0.copyload, 0.000000e+00
  %or.cond = select i1 %or.cond5.i, i1 true, i1 %30
  br i1 %or.cond, label %_Z17pj_coord_has_nans8PJ_COORD.exit.thread, label %_ZL17coord_is_all_nans8PJ_COORD.exit.thread

_Z17pj_coord_has_nans8PJ_COORD.exit.thread:       ; preds = %._crit_edge
  %31 = fcmp uno double %.sroa.01.sroa.0.0.copyload32, 0.000000e+00
  %32 = fcmp uno double %.sroa.01.sroa.10.0.copyload42, 0.000000e+00
  %or.cond.i25 = select i1 %31, i1 %32, i1 false
  %33 = fcmp uno double %.sroa.01.sroa.11.0.copyload54, 0.000000e+00
  %or.cond5.i26 = select i1 %or.cond.i25, i1 %33, i1 false
  %34 = fcmp uno double %.sroa.01.sroa.12.0.copyload66, 0.000000e+00
  %or.cond94 = select i1 %or.cond5.i26, i1 %34, i1 false
  br i1 %or.cond94, label %40, label %_ZL17coord_is_all_nans8PJ_COORD.exit.thread

_ZL17coord_is_all_nans8PJ_COORD.exit.thread:      ; preds = %._crit_edge, %_Z17pj_coord_has_nans8PJ_COORD.exit.thread
  %35 = call i32 @proj_angular_input(ptr noundef nonnull %0, i32 noundef %1)
  %.not = icmp eq i32 %35, 0
  br i1 %.not, label %38, label %36

36:                                               ; preds = %_ZL17coord_is_all_nans8PJ_COORD.exit.thread
  store double %.sroa.0.sroa.0.0.copyload, ptr %12, align 8
  %.sroa.0.sroa.7.0..sroa_idx78 = getelementptr inbounds nuw i8, ptr %12, i64 8
  store double %.sroa.0.sroa.7.0.copyload, ptr %.sroa.0.sroa.7.0..sroa_idx78, align 8
  %.sroa.0.sroa.8.0..sroa_idx84 = getelementptr inbounds nuw i8, ptr %12, i64 16
  store double %.sroa.0.sroa.8.0.copyload, ptr %.sroa.0.sroa.8.0..sroa_idx84, align 8
  %.sroa.0.sroa.9.0..sroa_idx90 = getelementptr inbounds nuw i8, ptr %12, i64 24
  store double %.sroa.0.sroa.9.0.copyload, ptr %.sroa.0.sroa.9.0..sroa_idx90, align 8, !tbaa !26
  store double %.sroa.01.sroa.0.0.copyload32, ptr %13, align 8
  %.sroa.01.sroa.10.0..sroa_idx43 = getelementptr inbounds nuw i8, ptr %13, i64 8
  store double %.sroa.01.sroa.10.0.copyload42, ptr %.sroa.01.sroa.10.0..sroa_idx43, align 8
  %.sroa.01.sroa.11.0..sroa_idx55 = getelementptr inbounds nuw i8, ptr %13, i64 16
  store double %.sroa.01.sroa.11.0.copyload54, ptr %.sroa.01.sroa.11.0..sroa_idx55, align 8
  %.sroa.01.sroa.12.0..sroa_idx67 = getelementptr inbounds nuw i8, ptr %13, i64 24
  store double %.sroa.01.sroa.12.0.copyload66, ptr %.sroa.01.sroa.12.0..sroa_idx67, align 8, !tbaa !26
  %37 = call double @proj_lpz_dist(ptr noundef nonnull %0, ptr noundef nonnull byval(%union.PJ_COORD) align 8 %12, ptr noundef nonnull byval(%union.PJ_COORD) align 8 %13)
  br label %40

38:                                               ; preds = %_ZL17coord_is_all_nans8PJ_COORD.exit.thread
  store double %.sroa.0.sroa.0.0.copyload, ptr %14, align 8
  %.sroa.0.sroa.7.0..sroa_idx80 = getelementptr inbounds nuw i8, ptr %14, i64 8
  store double %.sroa.0.sroa.7.0.copyload, ptr %.sroa.0.sroa.7.0..sroa_idx80, align 8
  %.sroa.0.sroa.8.0..sroa_idx86 = getelementptr inbounds nuw i8, ptr %14, i64 16
  store double %.sroa.0.sroa.8.0.copyload, ptr %.sroa.0.sroa.8.0..sroa_idx86, align 8
  %.sroa.0.sroa.9.0..sroa_idx92 = getelementptr inbounds nuw i8, ptr %14, i64 24
  store double %.sroa.0.sroa.9.0.copyload, ptr %.sroa.0.sroa.9.0..sroa_idx92, align 8, !tbaa !26
  store double %.sroa.01.sroa.0.0.copyload32, ptr %15, align 8
  %.sroa.01.sroa.10.0..sroa_idx45 = getelementptr inbounds nuw i8, ptr %15, i64 8
  store double %.sroa.01.sroa.10.0.copyload42, ptr %.sroa.01.sroa.10.0..sroa_idx45, align 8
  %.sroa.01.sroa.11.0..sroa_idx57 = getelementptr inbounds nuw i8, ptr %15, i64 16
  store double %.sroa.01.sroa.11.0.copyload54, ptr %.sroa.01.sroa.11.0..sroa_idx57, align 8
  %.sroa.01.sroa.12.0..sroa_idx69 = getelementptr inbounds nuw i8, ptr %15, i64 24
  store double %.sroa.01.sroa.12.0.copyload66, ptr %.sroa.01.sroa.12.0..sroa_idx69, align 8, !tbaa !26
  %39 = call double @proj_xyz_dist(ptr noundef nonnull byval(%union.PJ_COORD) align 8 %14, ptr noundef nonnull byval(%union.PJ_COORD) align 8 %15)
  br label %40

40:                                               ; preds = %_Z17pj_coord_has_nans8PJ_COORD.exit.thread, %4, %38, %36, %19
  %.022 = phi double [ 0x7FF0000000000000, %19 ], [ %37, %36 ], [ %39, %38 ], [ 0x7FF0000000000000, %4 ], [ 0.000000e+00, %_Z17pj_coord_has_nans8PJ_COORD.exit.thread ]
  ret double %.022
}